(lp1
S'http://drops.wooyun.org/tips/12681'
p2
aS'http://drops.wooyun.org/papers/12729'
p3
aS'http://drops.wooyun.org/tips/12677'
p4
aS'http://drops.wooyun.org/web/12695'
p5
aS'http://drops.wooyun.org/papers/12709'
p6
aS'http://drops.wooyun.org/tips/12613'
p7
aS'http://drops.wooyun.org/tips/12673'
p8
aS'http://drops.wooyun.org/tips/12518'
p9
aS'http://drops.wooyun.org/papers/12645'
p10
aS'http://drops.wooyun.org/pentesting/12521'
p11
aS'http://drops.wooyun.org/papers/12598'
p12
aS'http://drops.wooyun.org/tips/12467'
p13
aS'http://drops.wooyun.org/tips/12614'
p14
aS'http://drops.wooyun.org/mobile/12469'
p15
aS'http://drops.wooyun.org/tips/12560'
p16
aS'http://drops.wooyun.org/tools/12462'
p17
aS'http://drops.wooyun.org/papers/12519'
p18
aS'http://drops.wooyun.org/tips/12386'
p19
aS'http://drops.wooyun.org/mobile/12466'
p20
aS'http://drops.wooyun.org/%e8%bf%90%e7%bb%b4%e5%ae%89%e5%85%a8/12313'
p21
aS'http://drops.wooyun.org/papers/12355'
p22
aS'http://drops.wooyun.org/tips/12354'
p23
aS'http://drops.wooyun.org/papers/11921'
p24
aS'http://drops.wooyun.org/tips/12159'
p25
aS'http://drops.wooyun.org/papers/11946'
p26
aS'http://drops.wooyun.org/mobile/12172'
p27
aS'http://drops.wooyun.org/papers/12396'
p28
aS'http://drops.wooyun.org/tips/12370'
p29
aS'http://drops.wooyun.org/papers/12315'
p30
aS'http://drops.wooyun.org/%e8%bf%90%e7%bb%b4%e5%ae%89%e5%85%a8/12119'
p31
aS'http://drops.wooyun.org/tips/12183'
p32
aS'http://drops.wooyun.org/papers/12184'
p33
aS'http://drops.wooyun.org/tips/11804'
p34
aS'http://drops.wooyun.org/papers/12173'
p35
aS'http://drops.wooyun.org/papers/12039'
p36
aS'http://drops.wooyun.org/tips/12122'
p37
aS'http://drops.wooyun.org/tips/12043'
p38
aS'http://drops.wooyun.org/tips/11989'
p39
aS'http://drops.wooyun.org/tips/12021'
p40
aS'http://drops.wooyun.org/tips/12074'
p41
aS'http://drops.wooyun.org/pentesting/12020'
p42
aS'http://drops.wooyun.org/papers/11863'
p43
aS'http://drops.wooyun.org/papers/12045'
p44
aS'http://drops.wooyun.org/tips/12060'
p45
aS'http://drops.wooyun.org/papers/11652'
p46
aS'http://drops.wooyun.org/%e8%bf%90%e7%bb%b4%e5%ae%89%e5%85%a8/11801'
p47
aS'http://drops.wooyun.org/web/11837'
p48
aS'http://drops.wooyun.org/pentesting/11799'
p49
aS'http://drops.wooyun.org/tips/11803'
p50
aS'http://drops.wooyun.org/tips/11955'
p51
aS'http://drops.wooyun.org/web/11861'
p52
aS'http://drops.wooyun.org/tips/11849'
p53
aS'http://drops.wooyun.org/papers/11805'
p54
aS'http://drops.wooyun.org/tips/11764'
p55
aS'http://drops.wooyun.org/papers/11765'
p56
aS'http://drops.wooyun.org/tips/11757'
p57
aS'http://drops.wooyun.org/tips/11726'
p58
aS'http://drops.wooyun.org/papers/11727'
p59
aS'http://drops.wooyun.org/tips/11680'
p60
aS'http://drops.wooyun.org/papers/11718'
p61
aS'http://drops.wooyun.org/papers/11692'
p62
aS'http://drops.wooyun.org/mobile/11326'
p63
aS'http://drops.wooyun.org/tips/11704'
p64
aS'http://drops.wooyun.org/papers/11690'
p65
aS'http://drops.wooyun.org/tips/11682'
p66
aS'http://drops.wooyun.org/papers/11009'
p67
aS'http://drops.wooyun.org/tips/11631'
p68
aS'http://drops.wooyun.org/news/11524'
p69
aS'http://drops.wooyun.org/papers/11598'
p70
aS'http://drops.wooyun.org/mobile/11263'
p71
aS'http://drops.wooyun.org/tips/11105'
p72
aS'http://drops.wooyun.org/tips/11565'
p73
aS'http://drops.wooyun.org/web/11623'
p74
aS'http://drops.wooyun.org/news/11588'
p75
aS'http://drops.wooyun.org/tips/11305'
p76
aS'http://drops.wooyun.org/tips/11370'
p77
aS'http://drops.wooyun.org/tips/11367'
p78
aS'http://drops.wooyun.org/papers/11548'
p79
aS'http://drops.wooyun.org/web/11539'
p80
aS'http://drops.wooyun.org/tips/11342'
p81
aS'http://drops.wooyun.org/%e8%bf%90%e7%bb%b4%e5%ae%89%e5%85%a8/11106'
p82
aS'http://drops.wooyun.org/papers/11494'
p83
aS'http://drops.wooyun.org/tips/11083'
p84
aS'http://drops.wooyun.org/tips/11232'
p85
aS'http://drops.wooyun.org/papers/11448'
p86
aS'http://drops.wooyun.org/papers/11390'
p87
aS'http://drops.wooyun.org/papers/11371'
p88
aS'http://drops.wooyun.org/papers/11344'
p89
aS'http://drops.wooyun.org/tips/11329'
p90
aS'http://drops.wooyun.org/papers/11330'
p91
aS'http://drops.wooyun.org/papers/11243'
p92
aS'http://drops.wooyun.org/papers/11306'
p93
aS'http://drops.wooyun.org/papers/11046'
p94
aS'http://drops.wooyun.org/tips/11107'
p95
aS'http://drops.wooyun.org/papers/11267'
p96
aS'http://drops.wooyun.org/news/10913'
p97
aS'http://drops.wooyun.org/tips/11086'
p98
aS'http://drops.wooyun.org/papers/11244'
p99
aS'http://drops.wooyun.org/tips/10912'
p100
aS'http://drops.wooyun.org/binary/11171'
p101
aS'http://drops.wooyun.org/tips/11172'
p102
aS'http://drops.wooyun.org/papers/11032'
p103
aS'http://drops.wooyun.org/tips/11155'
p104
aS'http://drops.wooyun.org/tips/10993'
p105
aS'http://drops.wooyun.org/tips/10841'
p106
aS'http://drops.wooyun.org/papers/11065'
p107
aS'http://drops.wooyun.org/tips/10667'
p108
aS'http://drops.wooyun.org/papers/11063'
p109
aS'http://drops.wooyun.org/papers/11018'
p110
aS'http://drops.wooyun.org/tips/10901'
p111
aS'http://drops.wooyun.org/papers/10743'
p112
aS'http://drops.wooyun.org/tips/10900'
p113
aS'http://drops.wooyun.org/mobile/10775'
p114
aS'http://drops.wooyun.org/tips/10842'
p115
aS'http://drops.wooyun.org/papers/10801'
p116
aS'http://drops.wooyun.org/papers/10887'
p117
aS'http://drops.wooyun.org/papers/10896'
p118
aS'http://drops.wooyun.org/papers/9976'
p119
aS'http://drops.wooyun.org/web/10798'
p120
aS'http://drops.wooyun.org/papers/10807'
p121
aS'http://drops.wooyun.org/papers/9975'
p122
aS'http://drops.wooyun.org/papers/10673'
p123
aS'http://drops.wooyun.org/tips/10665'
p124
aS'http://drops.wooyun.org/tips/10558'
p125
aS'http://drops.wooyun.org/papers/10642'
p126
aS'http://drops.wooyun.org/tips/10641'
p127
aS'http://drops.wooyun.org/papers/9974'
p128
aS'http://drops.wooyun.org/binary/10638'
p129
aS'http://drops.wooyun.org/papers/10656'
p130
aS'http://drops.wooyun.org/papers/10652'
p131
aS'http://drops.wooyun.org/tips/9616'
p132
aS'http://drops.wooyun.org/web/10636'
p133
aS'http://drops.wooyun.org/papers/10597'
p134
aS'http://drops.wooyun.org/tips/10556'
p135
aS'http://drops.wooyun.org/tips/10382'
p136
aS'http://drops.wooyun.org/papers/10590'
p137
aS'http://drops.wooyun.org/tips/10560'
p138
aS'http://drops.wooyun.org/tips/10580'
p139
aS'http://drops.wooyun.org/tips/10384'
p140
aS'http://drops.wooyun.org/tips/10564'
p141
aS'http://drops.wooyun.org/mobile/10557'
p142
aS'http://drops.wooyun.org/papers/10555'
p143
aS'http://drops.wooyun.org/papers/10546'
p144
aS'http://drops.wooyun.org/papers/10511'
p145
aS'http://drops.wooyun.org/papers/10177'
p146
aS'http://drops.wooyun.org/mobile/10010'
p147
aS'http://drops.wooyun.org/tips/10199'
p148
aS'http://drops.wooyun.org/tips/10462'
p149
aS'http://drops.wooyun.org/tips/10496'
p150
aS'http://drops.wooyun.org/tips/10450'
p151
aS'http://drops.wooyun.org/tips/10377'
p152
aS'http://drops.wooyun.org/papers/10463'
p153
aS'http://drops.wooyun.org/papers/10482'
p154
aS'http://drops.wooyun.org/tips/10383'
p155
aS'http://drops.wooyun.org/papers/10467'
p156
aS'http://drops.wooyun.org/mobile/10194'
p157
aS'http://drops.wooyun.org/papers/10409'
p158
aS'http://drops.wooyun.org/papers/10385'
p159
aS'http://drops.wooyun.org/tips/10345'
p160
aS'http://drops.wooyun.org/papers/10191'
p161
aS'http://drops.wooyun.org/papers/10235'
p162
aS'http://drops.wooyun.org/tips/10346'
p163
aS'http://drops.wooyun.org/papers/10294'
p164
aS'http://drops.wooyun.org/papers/10260'
p165
aS'http://drops.wooyun.org/papers/10259'
p166
aS'http://drops.wooyun.org/tips/10232'
p167
aS'http://drops.wooyun.org/papers/10243'
p168
aS'http://drops.wooyun.org/papers/10231'
p169
aS'http://drops.wooyun.org/papers/10141'
p170
aS'http://drops.wooyun.org/tips/10205'
p171
aS'http://drops.wooyun.org/papers/10209'
p172
aS'http://drops.wooyun.org/tips/10146'
p173
aS'http://drops.wooyun.org/papers/10180'
p174
aS'http://drops.wooyun.org/tips/10181'
p175
aS'http://drops.wooyun.org/papers/10045'
p176
aS'http://drops.wooyun.org/papers/10156'
p177
aS'http://drops.wooyun.org/tips/10002'
p178
aS'http://drops.wooyun.org/papers/10061'
p179
aS'http://drops.wooyun.org/mobile/10009'
p180
aS'http://drops.wooyun.org/tips/10109'
p181
aS'http://drops.wooyun.org/binary/9246'
p182
aS'http://drops.wooyun.org/papers/10047'
p183
aS'http://drops.wooyun.org/tips/9947'
p184
aS'http://drops.wooyun.org/papers/10008'
p185
aS'http://drops.wooyun.org/tips/9948'
p186
aS'http://drops.wooyun.org/papers/9990'
p187
aS'http://drops.wooyun.org/tips/9973'
p188
aS'http://drops.wooyun.org/papers/9979'
p189
aS'http://drops.wooyun.org/tips/9846'
p190
aS'http://drops.wooyun.org/papers/9954'
p191
aS'http://drops.wooyun.org/tips/9925'
p192
aS'http://drops.wooyun.org/tips/9929'
p193
aS'http://drops.wooyun.org/papers/9894'
p194
aS'http://drops.wooyun.org/papers/9893'
p195
aS'http://drops.wooyun.org/tips/9597'
p196
aS'http://drops.wooyun.org/tips/9732'
p197
aS'http://drops.wooyun.org/papers/9863'
p198
aS'http://drops.wooyun.org/binary/9782'
p199
aS'http://drops.wooyun.org/web/9845'
p200
aS'http://drops.wooyun.org/papers/9809'
p201
aS'http://drops.wooyun.org/mobile/9797'
p202
aS'http://drops.wooyun.org/papers/9769'
p203
aS'http://drops.wooyun.org/papers/9784'
p204
aS'http://drops.wooyun.org/web/9737'
p205
aS'http://drops.wooyun.org/papers/9738'
p206
aS'http://drops.wooyun.org/papers/9435'
p207
aS'http://drops.wooyun.org/papers/9736'
p208
aS'http://drops.wooyun.org/%e8%bf%90%e7%bb%b4%e5%ae%89%e5%85%a8/9424'
p209
aS'http://drops.wooyun.org/tips/9651'
p210
aS'http://drops.wooyun.org/papers/9681'
p211
aS'http://drops.wooyun.org/tips/9650'
p212
aS'http://drops.wooyun.org/papers/9598'
p213
aS'http://drops.wooyun.org/papers/9426'
p214
aS'http://drops.wooyun.org/papers/9538'
p215
aS'http://drops.wooyun.org/tips/9591'
p216
aS'http://drops.wooyun.org/tips/9403'
p217
aS'http://drops.wooyun.org/mobile/9567'
p218
aS'http://drops.wooyun.org/tips/9347'
p219
aS'http://drops.wooyun.org/papers/9470'
p220
aS'http://drops.wooyun.org/papers/9510'
p221
aS'http://drops.wooyun.org/tips/9425'
p222
aS'http://drops.wooyun.org/tips/9297'
p223
aS'http://drops.wooyun.org/tips/9471'
p224
aS'http://drops.wooyun.org/papers/9144'
p225
aS'http://drops.wooyun.org/%e8%bf%90%e7%bb%b4%e5%ae%89%e5%85%a8/9232'
p226
aS'http://drops.wooyun.org/tips/9405'
p227
aS'http://drops.wooyun.org/tips/8862'
p228
aS'http://drops.wooyun.org/tips/9336'
p229
aS'http://drops.wooyun.org/tips/8971'
p230
aS'http://drops.wooyun.org/papers/9233'
p231
aS'http://drops.wooyun.org/tips/9249'
p232
aS'http://drops.wooyun.org/tips/9335'
p233
aS'http://drops.wooyun.org/binary/8640'
p234
aS'http://drops.wooyun.org/tips/9214'
p235
aS'http://drops.wooyun.org/tips/9300'
p236
aS'http://drops.wooyun.org/papers/9293'
p237
aS'http://drops.wooyun.org/papers/9292'
p238
aS'http://drops.wooyun.org/tips/9106'
p239
aS'http://drops.wooyun.org/papers/8814'
p240
aS'http://drops.wooyun.org/papers/9276'
p241
aS'http://drops.wooyun.org/mobile/9247'
p242
aS'http://drops.wooyun.org/papers/9251'
p243
aS'http://drops.wooyun.org/tips/9121'
p244
aS'http://drops.wooyun.org/papers/9159'
p245
aS'http://drops.wooyun.org/papers/9178'
p246
aS'http://drops.wooyun.org/web/8987'
p247
aS'http://drops.wooyun.org/papers/9164'
p248
aS'http://drops.wooyun.org/papers/9136'
p249
aS'http://drops.wooyun.org/papers/9085'
p250
aS'http://drops.wooyun.org/papers/8643'
p251
aS'http://drops.wooyun.org/%e8%bf%90%e7%bb%b4%e5%ae%89%e5%85%a8/8885'
p252
aS'http://drops.wooyun.org/mobile/9055'
p253
aS'http://drops.wooyun.org/papers/9024'
p254
aS'http://drops.wooyun.org/papers/9014'
p255
aS'http://drops.wooyun.org/papers/8886'
p256
aS'http://drops.wooyun.org/papers/8988'
p257
aS'http://drops.wooyun.org/tips/8989'
p258
aS'http://drops.wooyun.org/tips/8638'
p259
aS'http://drops.wooyun.org/papers/8973'
p260
aS'http://drops.wooyun.org/tips/8923'
p261
aS'http://drops.wooyun.org/%e8%bf%90%e7%bb%b4%e5%ae%89%e5%85%a8/8642'
p262
aS'http://drops.wooyun.org/tips/8872'
p263
aS'http://drops.wooyun.org/tips/8361'
p264
aS'http://drops.wooyun.org/news/8864'
p265
aS'http://drops.wooyun.org/papers/8812'
p266
aS'http://drops.wooyun.org/tips/8701'
p267
aS'http://drops.wooyun.org/tips/8659'
p268
aS'http://drops.wooyun.org/papers/8790'
p269
aS'http://drops.wooyun.org/news/8705'
p270
aS'http://drops.wooyun.org/papers/8736'
p271
aS'http://drops.wooyun.org/tips/8660'
p272
aS'http://drops.wooyun.org/tips/8547'
p273
aS'http://drops.wooyun.org/tips/8641'
p274
aS'http://drops.wooyun.org/papers/8644'
p275
aS'http://drops.wooyun.org/tips/8594'
p276
aS'http://drops.wooyun.org/tips/8568'
p277
aS'http://drops.wooyun.org/tips/8614'
p278
aS'http://drops.wooyun.org/tips/8567'
p279
aS'http://drops.wooyun.org/wireless/8338'
p280
aS'http://drops.wooyun.org/papers/8596'
p281
aS'http://drops.wooyun.org/papers/8410'
p282
aS'http://drops.wooyun.org/papers/8566'
p283
aS'http://drops.wooyun.org/%e8%bf%90%e7%bb%b4%e5%ae%89%e5%85%a8/8519'
p284
aS'http://drops.wooyun.org/binary/8496'
p285
aS'http://drops.wooyun.org/papers/8413'
p286
aS'http://drops.wooyun.org/tips/8321'
p287
aS'http://drops.wooyun.org/web/8528'
p288
aS'http://drops.wooyun.org/papers/8363'
p289
aS'http://drops.wooyun.org/tips/8190'
p290
aS'http://drops.wooyun.org/tips/8053'
p291
aS'http://drops.wooyun.org/tips/8296'
p292
aS'http://drops.wooyun.org/tips/8290'
p293
aS'http://drops.wooyun.org/tips/8416'
p294
aS'http://drops.wooyun.org/%e8%bf%90%e7%bb%b4%e5%ae%89%e5%85%a8/8169'
p295
aS'http://drops.wooyun.org/tools/8294'
p296
aS'http://drops.wooyun.org/tips/8292'
p297
aS'http://drops.wooyun.org/papers/8381'
p298
aS'http://drops.wooyun.org/news/8295'
p299
aS'http://drops.wooyun.org/tips/8260'
p300
aS'http://drops.wooyun.org/papers/8337'
p301
aS'http://drops.wooyun.org/mobile/8293'
p302
aS'http://drops.wooyun.org/papers/8298'
p303
aS'http://drops.wooyun.org/papers/8261'
p304
aS'http://drops.wooyun.org/binary/8185'
p305
aS'http://drops.wooyun.org/tips/8242'
p306
aS'http://drops.wooyun.org/papers/8268'
p307
aS'http://drops.wooyun.org/papers/8265'
p308
aS'http://drops.wooyun.org/database/8210'
p309
aS'http://drops.wooyun.org/tips/8166'
p310
aS'http://drops.wooyun.org/tips/8189'
p311
aS'http://drops.wooyun.org/tips/8186'
p312
aS'http://drops.wooyun.org/tips/8209'
p313
aS'http://drops.wooyun.org/tips/8192'
p314
aS'http://drops.wooyun.org/papers/8148'
p315
aS'http://drops.wooyun.org/mobile/8165'
p316
aS'http://drops.wooyun.org/tips/8130'
p317
aS'http://drops.wooyun.org/tips/8151'
p318
aS'http://drops.wooyun.org/tips/7840'
p319
aS'http://drops.wooyun.org/papers/7658'
p320
aS'http://drops.wooyun.org/tips/8129'
p321
aS'http://drops.wooyun.org/papers/8103'
p322
aS'http://drops.wooyun.org/web/8024'
p323
aS'http://drops.wooyun.org/tips/8084'
p324
aS'http://drops.wooyun.org/%e8%bf%90%e7%bb%b4%e5%ae%89%e5%85%a8/7962'
p325
aS'http://drops.wooyun.org/binary/7485'
p326
aS'http://drops.wooyun.org/binary/7620'
p327
aS'http://drops.wooyun.org/binary/7453'
p328
aS'http://drops.wooyun.org/binary/7452'
p329
aS'http://drops.wooyun.org/tips/7828'
p330
aS'http://drops.wooyun.org/binary/7958'
p331
aS'http://drops.wooyun.org/web/7884'
p332
aS'http://drops.wooyun.org/tips/7865'
p333
aS'http://drops.wooyun.org/papers/8025'
p334
aS'http://drops.wooyun.org/tips/7961'
p335
aS'http://drops.wooyun.org/binary/7430'
p336
aS'http://drops.wooyun.org/binary/7428'
p337
aS'http://drops.wooyun.org/tips/7883'
p338
aS'http://drops.wooyun.org/tips/7838'
p339
aS'http://drops.wooyun.org/news/7937'
p340
aS'http://drops.wooyun.org/tips/7934'
p341
aS'http://drops.wooyun.org/tips/7715'
p342
aS'http://drops.wooyun.org/tips/7831'
p343
aS'http://drops.wooyun.org/tips/7839'
p344
aS'http://drops.wooyun.org/papers/7830'
p345
aS'http://drops.wooyun.org/tips/7779'
p346
aS'http://drops.wooyun.org/papers/7816'
p347
aS'http://drops.wooyun.org/papers/7807'
p348
aS'http://drops.wooyun.org/binary/7714'
p349
aS'http://drops.wooyun.org/tips/7764'
p350
aS'http://drops.wooyun.org/tips/7713'
p351
aS'http://drops.wooyun.org/papers/7649'
p352
aS'http://drops.wooyun.org/binary/7647'
p353
aS'http://drops.wooyun.org/papers/7716'
p354
aS'http://drops.wooyun.org/tips/7710'
p355
aS'http://drops.wooyun.org/tips/7685'
p356
aS'http://drops.wooyun.org/tips/7679'
p357
aS'http://drops.wooyun.org/papers/7660'
p358
aS'http://drops.wooyun.org/web/7550'
p359
aS'http://drops.wooyun.org/binary/6928'
p360
aS'http://drops.wooyun.org/binary/6927'
p361
aS'http://drops.wooyun.org/tips/7505'
p362
aS'http://drops.wooyun.org/tips/7488'
p363
aS'http://drops.wooyun.org/papers/7557'
p364
aS'http://drops.wooyun.org/papers/7558'
p365
aS'http://drops.wooyun.org/papers/7551'
p366
aS'http://drops.wooyun.org/tips/7547'
p367
aS'http://drops.wooyun.org/web/7490'
p368
aS'http://drops.wooyun.org/papers/7521'
p369
aS'http://drops.wooyun.org/papers/7506'
p370
aS'http://drops.wooyun.org/mobile/7491'
p371
aS'http://drops.wooyun.org/tips/7462'
p372
aS'http://drops.wooyun.org/papers/7480'
p373
aS'http://drops.wooyun.org/mobile/7431'
p374
aS'http://drops.wooyun.org/papers/7478'
p375
aS'http://drops.wooyun.org/binary/6926'
p376
aS'http://drops.wooyun.org/tips/7358'
p377
aS'http://drops.wooyun.org/papers/7435'
p378
aS'http://drops.wooyun.org/web/7333'
p379
aS'http://drops.wooyun.org/news/7427'
p380
aS'http://drops.wooyun.org/tips/7320'
p381
aS'http://drops.wooyun.org/tips/7301'
p382
aS'http://drops.wooyun.org/tips/7181'
p383
aS'http://drops.wooyun.org/tips/7326'
p384
aS'http://drops.wooyun.org/papers/7317'
p385
aS'http://drops.wooyun.org/tips/7299'
p386
aS'http://drops.wooyun.org/tips/7318'
p387
aS'http://drops.wooyun.org/tips/7300'
p388
aS'http://drops.wooyun.org/tips/7275'
p389
aS'http://drops.wooyun.org/tips/7279'
p390
aS'http://drops.wooyun.org/tips/6972'
p391
aS'http://drops.wooyun.org/mobile/7196'
p392
aS'http://drops.wooyun.org/mobile/7195'
p393
aS'http://drops.wooyun.org/tips/7074'
p394
aS'http://drops.wooyun.org/papers/7199'
p395
aS'http://drops.wooyun.org/mobile/7156'
p396
aS'http://drops.wooyun.org/web/7112'
p397
aS'http://drops.wooyun.org/papers/7117'
p398
aS'http://drops.wooyun.org/papers/7116'
p399
aS'http://drops.wooyun.org/papers/7109'
p400
aS'http://drops.wooyun.org/papers/7073'
p401
aS'http://drops.wooyun.org/papers/7050'
p402
aS'http://drops.wooyun.org/papers/7049'
p403
aS'http://drops.wooyun.org/papers/7031'
p404
aS'http://drops.wooyun.org/mobile/7030'
p405
aS'http://drops.wooyun.org/tips/6814'
p406
aS'http://drops.wooyun.org/papers/7025'
p407
aS'http://drops.wooyun.org/mobile/6973'
p408
aS'http://drops.wooyun.org/papers/6998'
p409
aS'http://drops.wooyun.org/news/6977'
p410
aS'http://drops.wooyun.org/papers/6968'
p411
aS'http://drops.wooyun.org/web/6710'
p412
aS'http://drops.wooyun.org/tips/6924'
p413
aS'http://drops.wooyun.org/tips/6944'
p414
aS'http://drops.wooyun.org/tips/6617'
p415
aS'http://drops.wooyun.org/web/6917'
p416
aS'http://drops.wooyun.org/papers/6905'
p417
aS'http://drops.wooyun.org/tips/6919'
p418
aS'http://drops.wooyun.org/mobile/6910'
p419
aS'http://drops.wooyun.org/tips/6840'
p420
aS'http://drops.wooyun.org/tips/6826'
p421
aS'http://drops.wooyun.org/tips/6820'
p422
aS'http://drops.wooyun.org/tips/6813'
p423
aS'http://drops.wooyun.org/papers/6788'
p424
aS'http://drops.wooyun.org/papers/6762'
p425
aS'http://drops.wooyun.org/tips/6740'
p426
aS'http://drops.wooyun.org/tips/6711'
p427
aS'http://drops.wooyun.org/tips/6619'
p428
aS'http://drops.wooyun.org/tips/6683'
p429
aS'http://drops.wooyun.org/mobile/6665'
p430
aS'http://drops.wooyun.org/papers/6660'
p431
aS'http://drops.wooyun.org/tips/6653'
p432
aS'http://drops.wooyun.org/papers/6630'
p433
aS'http://drops.wooyun.org/papers/6651'
p434
aS'http://drops.wooyun.org/tips/6631'
p435
aS'http://drops.wooyun.org/papers/6632'
p436
aS'http://drops.wooyun.org/tips/6629'
p437
aS'http://drops.wooyun.org/tips/6570'
p438
aS'http://drops.wooyun.org/papers/6612'
p439
aS'http://drops.wooyun.org/tips/6595'
p440
aS'http://drops.wooyun.org/tips/6599'
p441
aS'http://drops.wooyun.org/tips/6597'
p442
aS'http://drops.wooyun.org/papers/6571'
p443
aS'http://drops.wooyun.org/papers/6559'
p444
aS'http://drops.wooyun.org/news/6457'
p445
aS'http://drops.wooyun.org/binary/6521'
p446
aS'http://drops.wooyun.org/papers/6463'
p447
aS'http://drops.wooyun.org/tips/6444'
p448
aS'http://drops.wooyun.org/tips/6449'
p449
aS'http://drops.wooyun.org/tips/6225'
p450
aS'http://drops.wooyun.org/tips/6403'
p451
aS'http://drops.wooyun.org/tips/6398'
p452
aS'http://drops.wooyun.org/papers/6335'
p453
aS'http://drops.wooyun.org/tips/6261'
p454
aS'http://drops.wooyun.org/papers/6332'
p455
aS'http://drops.wooyun.org/binary/6259'
p456
aS'http://drops.wooyun.org/tips/6313'
p457
aS'http://drops.wooyun.org/papers/6262'
p458
aS'http://drops.wooyun.org/papers/6238'
p459
aS'http://drops.wooyun.org/papers/6229'
p460
aS'http://drops.wooyun.org/tips/6220'
p461
aS'http://drops.wooyun.org/tips/6211'
p462
aS'http://drops.wooyun.org/tips/6199'
p463
aS'http://drops.wooyun.org/mobile/6082'
p464
aS'http://drops.wooyun.org/tips/6123'
p465
aS'http://drops.wooyun.org/papers/6162'
p466
aS'http://drops.wooyun.org/papers/6095'
p467
aS'http://drops.wooyun.org/tips/6090'
p468
aS'http://drops.wooyun.org/tips/6089'
p469
aS'http://drops.wooyun.org/tips/6049'
p470
aS'http://drops.wooyun.org/papers/6043'
p471
aS'http://drops.wooyun.org/papers/6077'
p472
aS'http://drops.wooyun.org/papers/6045'
p473
aS'http://drops.wooyun.org/tips/6042'
p474
aS'http://drops.wooyun.org/papers/6039'
p475
aS'http://drops.wooyun.org/mobile/5915'
p476
aS'http://drops.wooyun.org/papers/6035'
p477
aS'http://drops.wooyun.org/papers/6036'
p478
aS'http://drops.wooyun.org/papers/6024'
p479
aS'http://drops.wooyun.org/papers/5868'
p480
aS'http://drops.wooyun.org/tips/6002'
p481
aS'http://drops.wooyun.org/papers/5968'
p482
aS'http://drops.wooyun.org/mobile/5942'
p483
aS'http://drops.wooyun.org/tips/5898'
p484
aS'http://drops.wooyun.org/tips/5765'
p485
aS'http://drops.wooyun.org/tips/5796'
p486
aS'http://drops.wooyun.org/tips/5799'
p487
aS'http://drops.wooyun.org/binary/5831'
p488
aS'http://drops.wooyun.org/papers/5797'
p489
aS'http://drops.wooyun.org/papers/5609'
p490
aS'http://drops.wooyun.org/tools/5751'
p491
aS'http://drops.wooyun.org/news/5810'
p492
aS'http://drops.wooyun.org/papers/5738'
p493
aS'http://drops.wooyun.org/papers/5673'
p494
aS'http://drops.wooyun.org/papers/5752'
p495
aS'http://drops.wooyun.org/papers/5731'
p496
aS'http://drops.wooyun.org/papers/5732'
p497
aS'http://drops.wooyun.org/papers/5723'
p498
aS'http://drops.wooyun.org/tips/5670'
p499
aS'http://drops.wooyun.org/papers/5669'
p500
aS'http://drops.wooyun.org/tools/5599'
p501
aS'http://drops.wooyun.org/tools/5602'
p502
aS'http://drops.wooyun.org/papers/5601'
p503
aS'http://drops.wooyun.org/tips/5566'
p504
aS'http://drops.wooyun.org/papers/5574'
p505
aS'http://drops.wooyun.org/tips/5535'
p506
aS'http://drops.wooyun.org/papers/5519'
p507
aS'http://drops.wooyun.org/papers/5514'
p508
aS'http://drops.wooyun.org/papers/5493'
p509
aS'http://drops.wooyun.org/tips/5462'
p510
aS'http://drops.wooyun.org/papers/5463'
p511
aS'http://drops.wooyun.org/web/5459'
p512
aS'http://drops.wooyun.org/papers/5460'
p513
aS'http://drops.wooyun.org/tips/5409'
p514
aS'http://drops.wooyun.org/papers/5446'
p515
aS'http://drops.wooyun.org/web/5410'
p516
aS'http://drops.wooyun.org/%e8%bf%90%e7%bb%b4%e5%ae%89%e5%85%a8/5411'
p517
aS'http://drops.wooyun.org/papers/5398'
p518
aS'http://drops.wooyun.org/papers/5350'
p519
aS'http://drops.wooyun.org/papers/5390'
p520
aS'http://drops.wooyun.org/tips/5300'
p521
aS'http://drops.wooyun.org/tips/5306'
p522
aS'http://drops.wooyun.org/tips/5305'
p523
aS'http://drops.wooyun.org/papers/5309'
p524
aS'http://drops.wooyun.org/tips/5290'
p525
aS'http://drops.wooyun.org/tips/5283'
p526
aS'http://drops.wooyun.org/papers/5272'
p527
aS'http://drops.wooyun.org/binary/5286'
p528
aS'http://drops.wooyun.org/web/5282'
p529
aS'http://drops.wooyun.org/tips/5253'
p530
aS'http://drops.wooyun.org/papers/5233'
p531
aS'http://drops.wooyun.org/tips/5254'
p532
aS'http://drops.wooyun.org/papers/5232'
p533
aS'http://drops.wooyun.org/tips/5234'
p534
aS'http://drops.wooyun.org/tools/5199'
p535
aS'http://drops.wooyun.org/mobile/5210'
p536
aS'http://drops.wooyun.org/web/5154'
p537
aS'http://drops.wooyun.org/tips/5118'
p538
aS'http://drops.wooyun.org/binary/5147'
p539
aS'http://drops.wooyun.org/news/5153'
p540
aS'http://drops.wooyun.org/papers/5164'
p541
aS'http://drops.wooyun.org/papers/5157'
p542
aS'http://drops.wooyun.org/web/5048'
p543
aS'http://drops.wooyun.org/papers/5142'
p544
aS'http://drops.wooyun.org/papers/5042'
p545
aS'http://drops.wooyun.org/tips/5136'
p546
aS'http://drops.wooyun.org/papers/5057'
p547
aS'http://drops.wooyun.org/papers/5080'
p548
aS'http://drops.wooyun.org/papers/5107'
p549
aS'http://drops.wooyun.org/papers/5040'
p550
aS'http://drops.wooyun.org/tips/5086'
p551
aS'http://drops.wooyun.org/web/5049'
p552
aS'http://drops.wooyun.org/papers/5037'
p553
aS'http://drops.wooyun.org/papers/5030'
p554
aS'http://drops.wooyun.org/papers/5017'
p555
aS'http://drops.wooyun.org/tips/5032'
p556
aS'http://drops.wooyun.org/tips/4988'
p557
aS'http://drops.wooyun.org/mobile/4998'
p558
aS'http://drops.wooyun.org/tips/4975'
p559
aS'http://drops.wooyun.org/papers/4976'
p560
aS'http://drops.wooyun.org/papers/4972'
p561
aS'http://drops.wooyun.org/tips/4966'
p562
aS'http://drops.wooyun.org/web/4866'
p563
aS'http://drops.wooyun.org/papers/4939'
p564
aS'http://drops.wooyun.org/tips/4907'
p565
aS'http://drops.wooyun.org/tips/4931'
p566
aS'http://drops.wooyun.org/papers/4918'
p567
aS'http://drops.wooyun.org/tips/4862'
p568
aS'http://drops.wooyun.org/papers/4864'
p569
aS'http://drops.wooyun.org/papers/4860'
p570
aS'http://drops.wooyun.org/tips/4854'
p571
aS'http://drops.wooyun.org/tips/4858'
p572
aS'http://drops.wooyun.org/tips/4839'
p573
aS'http://drops.wooyun.org/papers/4834'
p574
aS'http://drops.wooyun.org/papers/4823'
p575
aS'http://drops.wooyun.org/papers/4820'
p576
aS'http://drops.wooyun.org/tools/4760'
p577
aS'http://drops.wooyun.org/binary/4788'
p578
aS'http://drops.wooyun.org/papers/4780'
p579
aS'http://drops.wooyun.org/tips/4766'
p580
aS'http://drops.wooyun.org/papers/4762'
p581
aS'http://drops.wooyun.org/papers/4751'
p582
aS'http://drops.wooyun.org/tips/4731'
p583
aS'http://drops.wooyun.org/papers/4716'
p584
aS'http://drops.wooyun.org/tips/4715'
p585
aS'http://drops.wooyun.org/tips/4707'
p586
aS'http://drops.wooyun.org/tips/4634'
p587
aS'http://drops.wooyun.org/papers/4621'
p588
aS'http://drops.wooyun.org/papers/4611'
p589
aS'http://drops.wooyun.org/tips/4605'
p590
aS'http://drops.wooyun.org/papers/4544'
p591
aS'http://drops.wooyun.org/papers/4584'
p592
aS'http://drops.wooyun.org/papers/4578'
p593
aS'http://drops.wooyun.org/tips/4550'
p594
aS'http://drops.wooyun.org/tips/4523'
p595
aS'http://drops.wooyun.org/papers/4525'
p596
aS'http://drops.wooyun.org/papers/4505'
p597
aS'http://drops.wooyun.org/tips/4484'
p598
aS'http://drops.wooyun.org/papers/4486'
p599
aS'http://drops.wooyun.org/tips/4482'
p600
aS'http://drops.wooyun.org/tips/4483'
p601
aS'http://drops.wooyun.org/papers/4439'
p602
aS'http://drops.wooyun.org/tips/4412'
p603
aS'http://drops.wooyun.org/tips/4413'
p604
aS'http://drops.wooyun.org/web/4410'
p605
aS'http://drops.wooyun.org/tips/4403'
p606
aS'http://drops.wooyun.org/tips/4393'
p607
aS'http://drops.wooyun.org/papers/4386'
p608
aS'http://drops.wooyun.org/tips/4342'
p609
aS'http://drops.wooyun.org/papers/4339'
p610
aS'http://drops.wooyun.org/tips/4333'
p611
aS'http://drops.wooyun.org/papers/4323'
p612
aS'http://drops.wooyun.org/tips/4322'
p613
aS'http://drops.wooyun.org/tips/4314'
p614
aS'http://drops.wooyun.org/mobile/4296'
p615
aS'http://drops.wooyun.org/wireless/4295'
p616
aS'http://drops.wooyun.org/tips/4243'
p617
aS'http://drops.wooyun.org/tips/4225'
p618
aS'http://drops.wooyun.org/papers/4194'
p619
aS'http://drops.wooyun.org/papers/4162'
p620
aS'http://drops.wooyun.org/%e8%bf%90%e7%bb%b4%e5%ae%89%e5%85%a8/4151'
p621
aS'http://drops.wooyun.org/papers/4115'
p622
aS'http://drops.wooyun.org/tips/4118'
p623
aS'http://drops.wooyun.org/tips/4070'
p624
aS'http://drops.wooyun.org/papers/4077'
p625
aS'http://drops.wooyun.org/tips/4051'
p626
aS'http://drops.wooyun.org/papers/4024'
p627
aS'http://drops.wooyun.org/%e8%bf%90%e7%bb%b4%e5%ae%89%e5%85%a8/4010'
p628
aS'http://drops.wooyun.org/papers/3993'
p629
aS'http://drops.wooyun.org/tips/3978'
p630
aS'http://drops.wooyun.org/papers/3962'
p631
aS'http://drops.wooyun.org/tips/3939'
p632
aS'http://drops.wooyun.org/tips/3936'
p633
aS'http://drops.wooyun.org/tips/3915'
p634
aS'http://drops.wooyun.org/papers/3912'
p635
aS'http://drops.wooyun.org/web/3910'
p636
aS'http://drops.wooyun.org/tips/3911'
p637
aS'http://drops.wooyun.org/tips/3909'
p638
aS'http://drops.wooyun.org/%e8%bf%90%e7%bb%b4%e5%ae%89%e5%85%a8/3874'
p639
aS'http://drops.wooyun.org/tips/3831'
p640
aS'http://drops.wooyun.org/tips/3827'
p641
aS'http://drops.wooyun.org/web/3825'
p642
aS'http://drops.wooyun.org/web/3801'
p643
aS'http://drops.wooyun.org/wireless/3810'
p644
aS'http://drops.wooyun.org/tips/3812'
p645
aS'http://drops.wooyun.org/tips/3804'
p646
aS'http://drops.wooyun.org/papers/3795'
p647
aS'http://drops.wooyun.org/tools/3786'
p648
aS'http://drops.wooyun.org/tips/3790'
p649
aS'http://drops.wooyun.org/papers/3771'
p650
aS'http://drops.wooyun.org/papers/3602'
p651
aS'http://drops.wooyun.org/tips/3603'
p652
aS'http://drops.wooyun.org/tips/3589'
p653
aS'http://drops.wooyun.org/tips/3434'
p654
aS'http://drops.wooyun.org/tips/3473'
p655
aS'http://drops.wooyun.org/tips/3464'
p656
aS'http://drops.wooyun.org/papers/3451'
p657
aS'http://drops.wooyun.org/papers/3459'
p658
aS'http://drops.wooyun.org/tips/3435'
p659
aS'http://drops.wooyun.org/tips/3424'
p660
aS'http://drops.wooyun.org/tips/3420'
p661
aS'http://drops.wooyun.org/pentesting/3390'
p662
aS'http://drops.wooyun.org/tips/3349'
p663
aS'http://drops.wooyun.org/tips/3353'
p664
aS'http://drops.wooyun.org/papers/3331'
p665
aS'http://drops.wooyun.org/papers/3324'
p666
aS'http://drops.wooyun.org/tips/3296'
p667
aS'http://drops.wooyun.org/web/3295'
p668
aS'http://drops.wooyun.org/papers/3268'
p669
aS'http://drops.wooyun.org/tips/3248'
p670
aS'http://drops.wooyun.org/tips/3199'
p671
aS'http://drops.wooyun.org/papers/3197'
p672
aS'http://drops.wooyun.org/papers/3194'
p673
aS'http://drops.wooyun.org/tools/3186'
p674
aS'http://drops.wooyun.org/papers/3178'
p675
aS'http://drops.wooyun.org/tips/3170'
p676
aS'http://drops.wooyun.org/tips/3168'
p677
aS'http://drops.wooyun.org/tips/3167'
p678
aS'http://drops.wooyun.org/tips/3166'
p679
aS'http://drops.wooyun.org/papers/3133'
p680
aS'http://drops.wooyun.org/tips/3131'
p681
aS'http://drops.wooyun.org/papers/3091'
p682
aS'http://drops.wooyun.org/tools/3113'
p683
aS'http://drops.wooyun.org/tips/3071'
p684
aS'http://drops.wooyun.org/web/2918'
p685
aS'http://drops.wooyun.org/papers/3064'
p686
aS'http://drops.wooyun.org/tips/2943'
p687
aS'http://drops.wooyun.org/papers/3062'
p688
aS'http://drops.wooyun.org/tips/3059'
p689
aS'http://drops.wooyun.org/tips/3029'
p690
aS'http://drops.wooyun.org/papers/3030'
p691
aS'http://drops.wooyun.org/tips/3003'
p692
aS'http://drops.wooyun.org/tips/2997'
p693
aS'http://drops.wooyun.org/tips/2988'
p694
aS'http://drops.wooyun.org/tips/2986'
p695
aS'http://drops.wooyun.org/tips/2976'
p696
aS'http://drops.wooyun.org/tips/2945'
p697
aS'http://drops.wooyun.org/tips/2903'
p698
aS'http://drops.wooyun.org/tips/2924'
p699
aS'http://drops.wooyun.org/tips/2915'
p700
aS'http://drops.wooyun.org/tips/2892'
p701
aS'http://drops.wooyun.org/papers/2893'
p702
aS'http://drops.wooyun.org/wireless/2891'
p703
aS'http://drops.wooyun.org/papers/2886'
p704
aS'http://drops.wooyun.org/tips/2871'
p705
aS'http://drops.wooyun.org/tips/2866'
p706
aS'http://drops.wooyun.org/papers/2854'
p707
aS'http://drops.wooyun.org/papers/2792'
p708
aS'http://drops.wooyun.org/tips/2839'
p709
aS'http://drops.wooyun.org/tips/2834'
p710
aS'http://drops.wooyun.org/tips/2812'
p711
aS'http://drops.wooyun.org/tips/2830'
p712
aS'http://drops.wooyun.org/tips/2821'
p713
aS'http://drops.wooyun.org/papers/2803'
p714
aS'http://drops.wooyun.org/tips/2719'
p715
aS'http://drops.wooyun.org/tips/2746'
p716
aS'http://drops.wooyun.org/tips/2775'
p717
aS'http://drops.wooyun.org/tips/2736'
p718
aS'http://drops.wooyun.org/tips/2728'
p719
aS'http://drops.wooyun.org/news/2731'
p720
aS'http://drops.wooyun.org/tips/2730'
p721
aS'http://drops.wooyun.org/%e8%bf%90%e7%bb%b4%e5%ae%89%e5%85%a8/2727'
p722
aS'http://drops.wooyun.org/web/2718'
p723
aS'http://drops.wooyun.org/tips/2686'
p724
aS'http://drops.wooyun.org/tips/2689'
p725
aS'http://drops.wooyun.org/papers/2677'
p726
aS'http://drops.wooyun.org/tips/2646'
p727
aS'http://drops.wooyun.org/tips/2671'
p728
aS'http://drops.wooyun.org/tips/2624'
p729
aS'http://drops.wooyun.org/tips/2621'
p730
aS'http://drops.wooyun.org/tips/2618'
p731
aS'http://drops.wooyun.org/tips/2614'
p732
aS'http://drops.wooyun.org/tips/2591'
p733
aS'http://drops.wooyun.org/papers/2609'
p734
aS'http://drops.wooyun.org/tips/2568'
p735
aS'http://drops.wooyun.org/tips/2552'
p736
aS'http://drops.wooyun.org/tips/2562'
p737
aS'http://drops.wooyun.org/tips/2554'
p738
aS'http://drops.wooyun.org/%e8%bf%90%e7%bb%b4%e5%ae%89%e5%85%a8/2547'
p739
aS'http://drops.wooyun.org/papers/2502'
p740
aS'http://drops.wooyun.org/mobile/2503'
p741
aS'http://drops.wooyun.org/tips/2504'
p742
aS'http://drops.wooyun.org/tips/2498'
p743
aS'http://drops.wooyun.org/tips/2494'
p744
aS'http://drops.wooyun.org/tips/2459'
p745
aS'http://drops.wooyun.org/%e8%bf%90%e7%bb%b4%e5%ae%89%e5%85%a8/2470'
p746
aS'http://drops.wooyun.org/tips/2469'
p747
aS'http://drops.wooyun.org/papers/2466'
p748
aS'http://drops.wooyun.org/tips/2460'
p749
aS'http://drops.wooyun.org/tips/2457'
p750
aS'http://drops.wooyun.org/news/2450'
p751
aS'http://drops.wooyun.org/tips/2451'
p752
aS'http://drops.wooyun.org/papers/2448'
p753
aS'http://drops.wooyun.org/tips/2443'
p754
aS'http://drops.wooyun.org/tips/2444'
p755
aS'http://drops.wooyun.org/tips/2423'
p756
aS'http://drops.wooyun.org/tips/2420'
p757
aS'http://drops.wooyun.org/papers/2419'
p758
aS'http://drops.wooyun.org/tips/2288'
p759
aS'http://drops.wooyun.org/tips/2245'
p760
aS'http://drops.wooyun.org/tips/2282'
p761
aS'http://drops.wooyun.org/tips/2247'
p762
aS'http://drops.wooyun.org/tips/2227'
p763
aS'http://drops.wooyun.org/papers/2192'
p764
aS'http://drops.wooyun.org/tips/2188'
p765
aS'http://drops.wooyun.org/papers/2185'
p766
aS'http://drops.wooyun.org/tips/2179'
p767
aS'http://drops.wooyun.org/tips/2177'
p768
aS'http://drops.wooyun.org/tips/2143'
p769
aS'http://drops.wooyun.org/tips/2140'
p770
aS'http://drops.wooyun.org/pentesting/2134'
p771
aS'http://drops.wooyun.org/pentesting/2125'
p772
aS'http://drops.wooyun.org/tips/2113'
p773
aS'http://drops.wooyun.org/tips/2112'
p774
aS'http://drops.wooyun.org/tips/2106'
p775
aS'http://drops.wooyun.org/tips/2078'
p776
aS'http://drops.wooyun.org/tips/2073'
p777
aS'http://drops.wooyun.org/tips/2065'
p778
aS'http://drops.wooyun.org/tips/2046'
p779
aS'http://drops.wooyun.org/tips/2031'
p780
aS'http://drops.wooyun.org/papers/2035'
p781
aS'http://drops.wooyun.org/tips/2014'
p782
aS'http://drops.wooyun.org/papers/2015'
p783
aS'http://drops.wooyun.org/tips/2006'
p784
aS'http://drops.wooyun.org/tips/2002'
p785
aS'http://drops.wooyun.org/papers/1989'
p786
aS'http://drops.wooyun.org/tips/1985'
p787
aS'http://drops.wooyun.org/tips/1963'
p788
aS'http://drops.wooyun.org/papers/1957'
p789
aS'http://drops.wooyun.org/tips/1955'
p790
aS'http://drops.wooyun.org/tips/1951'
p791
aS'http://drops.wooyun.org/tips/1670'
p792
aS'http://drops.wooyun.org/tips/1931'
p793
aS'http://drops.wooyun.org/papers/1911'
p794
aS'http://drops.wooyun.org/papers/1778'
p795
aS'http://drops.wooyun.org/papers/1714'
p796
aS'http://drops.wooyun.org/tips/1666'
p797
aS'http://drops.wooyun.org/tips/1620'
p798
aS'http://drops.wooyun.org/tools/1629'
p799
aS'http://drops.wooyun.org/tips/1621'
p800
aS'http://drops.wooyun.org/tools/1548'
p801
aS'http://drops.wooyun.org/papers/1515'
p802
aS'http://drops.wooyun.org/papers/1524'
p803
aS'http://drops.wooyun.org/tips/1517'
p804
aS'http://drops.wooyun.org/papers/1501'
p805
aS'http://drops.wooyun.org/tips/1477'
p806
aS'http://drops.wooyun.org/tools/1475'
p807
aS'http://drops.wooyun.org/tips/1473'
p808
aS'http://drops.wooyun.org/papers/1472'
p809
aS'http://drops.wooyun.org/papers/1449'
p810
aS'http://drops.wooyun.org/tips/1424'
p811
aS'http://drops.wooyun.org/tips/1423'
p812
aS'http://drops.wooyun.org/tips/1410'
p813
aS'http://drops.wooyun.org/papers/1440'
p814
aS'http://drops.wooyun.org/tips/1439'
p815
aS'http://drops.wooyun.org/papers/1426'
p816
aS'http://drops.wooyun.org/papers/1421'
p817
aS'http://drops.wooyun.org/papers/1418'
p818
aS'http://drops.wooyun.org/papers/1419'
p819
aS'http://drops.wooyun.org/news/1408'
p820
aS'http://drops.wooyun.org/papers/1409'
p821
aS'http://drops.wooyun.org/papers/1404'
p822
aS'http://drops.wooyun.org/news/1401'
p823
aS'http://drops.wooyun.org/papers/1395'
p824
aS'http://drops.wooyun.org/papers/1383'
p825
aS'http://drops.wooyun.org/papers/1381'
p826
aS'http://drops.wooyun.org/papers/1377'
p827
aS'http://drops.wooyun.org/tips/1376'
p828
aS'http://drops.wooyun.org/news/1373'
p829
aS'http://drops.wooyun.org/tips/1354'
p830
aS'http://drops.wooyun.org/news/1352'
p831
aS'http://drops.wooyun.org/tips/1346'
p832
aS'http://drops.wooyun.org/tools/1344'
p833
aS'http://drops.wooyun.org/tips/1343'
p834
aS'http://drops.wooyun.org/papers/1327'
p835
aS'http://drops.wooyun.org/tips/1323'
p836
aS'http://drops.wooyun.org/tips/1322'
p837
aS'http://drops.wooyun.org/papers/1321'
p838
aS'http://drops.wooyun.org/tips/1314'
p839
aS'http://drops.wooyun.org/tips/1288'
p840
aS'http://drops.wooyun.org/news/1289'
p841
aS'http://drops.wooyun.org/tips/1286'
p842
aS'http://drops.wooyun.org/papers/1270'
p843
aS'http://drops.wooyun.org/news/1269'
p844
aS'http://drops.wooyun.org/tips/1265'
p845
aS'http://drops.wooyun.org/tips/1226'
p846
aS'http://drops.wooyun.org/tips/1261'
p847
aS'http://drops.wooyun.org/papers/1215'
p848
aS'http://drops.wooyun.org/papers/1210'
p849
aS'http://drops.wooyun.org/papers/1207'
p850
aS'http://drops.wooyun.org/news/1205'
p851
aS'http://drops.wooyun.org/news/1202'
p852
aS'http://drops.wooyun.org/news/1195'
p853
aS'http://drops.wooyun.org/tips/1169'
p854
aS'http://drops.wooyun.org/tips/1166'
p855
aS'http://drops.wooyun.org/papers/1151'
p856
aS'http://drops.wooyun.org/papers/1071'
p857
aS'http://drops.wooyun.org/tips/1067'
p858
aS'http://drops.wooyun.org/news/1069'
p859
aS'http://drops.wooyun.org/papers/1066'
p860
aS'http://drops.wooyun.org/news/1062'
p861
aS'http://drops.wooyun.org/tips/1060'
p862
aS'http://drops.wooyun.org/news/1057'
p863
aS'http://drops.wooyun.org/tips/1055'
p864
aS'http://drops.wooyun.org/news/1034'
p865
aS'http://drops.wooyun.org/papers/1026'
p866
aS'http://drops.wooyun.org/papers/1024'
p867
aS'http://drops.wooyun.org/papers/1020'
p868
aS'http://drops.wooyun.org/papers/1019'
p869
aS'http://drops.wooyun.org/news/1021'
p870
aS'http://drops.wooyun.org/papers/1018'
p871
aS'http://drops.wooyun.org/papers/1015'
p872
aS'http://drops.wooyun.org/tools/1013'
p873
aS'http://drops.wooyun.org/news/1011'
p874
aS'http://drops.wooyun.org/tips/975'
p875
aS'http://drops.wooyun.org/tips/968'
p876
aS'http://drops.wooyun.org/news/989'
p877
aS'http://drops.wooyun.org/papers/979'
p878
aS'http://drops.wooyun.org/news/976'
p879
aS'http://drops.wooyun.org/papers/974'
p880
aS'http://drops.wooyun.org/news/969'
p881
aS'http://drops.wooyun.org/tips/967'
p882
aS'http://drops.wooyun.org/tips/858'
p883
aS'http://drops.wooyun.org/papers/959'
p884
aS'http://drops.wooyun.org/tips/956'
p885
aS'http://drops.wooyun.org/papers/955'
p886
aS'http://drops.wooyun.org/news/951'
p887
aS'http://drops.wooyun.org/tools/950'
p888
aS'http://drops.wooyun.org/papers/948'
p889
aS'http://drops.wooyun.org/tips/947'
p890
aS'http://drops.wooyun.org/news/944'
p891
aS'http://drops.wooyun.org/news/941'
p892
aS'http://drops.wooyun.org/papers/938'
p893
aS'http://drops.wooyun.org/news/925'
p894
aS'http://drops.wooyun.org/papers/929'
p895
aS'http://drops.wooyun.org/papers/926'
p896
aS'http://drops.wooyun.org/papers/917'
p897
aS'http://drops.wooyun.org/papers/914'
p898
aS'http://drops.wooyun.org/papers/902'
p899
aS'http://drops.wooyun.org/papers/894'
p900
aS'http://drops.wooyun.org/tips/879'
p901
aS'http://drops.wooyun.org/papers/892'
p902
aS'http://drops.wooyun.org/papers/869'
p903
aS'http://drops.wooyun.org/tips/870'
p904
aS'http://drops.wooyun.org/papers/865'
p905
aS'http://drops.wooyun.org/tips/863'
p906
aS'http://drops.wooyun.org/tips/862'
p907
aS'http://drops.wooyun.org/papers/850'
p908
aS'http://drops.wooyun.org/tips/847'
p909
aS'http://drops.wooyun.org/tips/845'
p910
aS'http://drops.wooyun.org/tips/839'
p911
aS'http://drops.wooyun.org/tips/838'
p912
aS'http://drops.wooyun.org/tips/826'
p913
aS'http://drops.wooyun.org/papers/831'
p914
aS'http://drops.wooyun.org/tips/823'
p915
aS'http://drops.wooyun.org/tips/789'
p916
aS'http://drops.wooyun.org/papers/785'
p917
aS'http://drops.wooyun.org/tips/783'
p918
aS'http://drops.wooyun.org/tips/771'
p919
aS'http://drops.wooyun.org/tips/750'
p920
aS'http://drops.wooyun.org/tips/749'
p921
aS'http://drops.wooyun.org/tips/746'
p922
aS'http://drops.wooyun.org/tips/748'
p923
aS'http://drops.wooyun.org/papers/741'
p924
aS'http://drops.wooyun.org/papers/736'
p925
aS'http://drops.wooyun.org/tools/738'
p926
aS'http://drops.wooyun.org/tips/737'
p927
aS'http://drops.wooyun.org/tips/734'
p928
aS'http://drops.wooyun.org/tips/730'
p929
aS'http://drops.wooyun.org/tips/727'
p930
aS'http://drops.wooyun.org/tips/723'
p931
aS'http://drops.wooyun.org/papers/722'
p932
aS'http://drops.wooyun.org/tips/721'
p933
aS'http://drops.wooyun.org/tips/688'
p934
aS'http://drops.wooyun.org/tips/689'
p935
aS'http://drops.wooyun.org/papers/680'
p936
aS'http://drops.wooyun.org/papers/679'
p937
aS'http://drops.wooyun.org/news/674'
p938
aS'http://drops.wooyun.org/tips/662'
p939
aS'http://drops.wooyun.org/papers/660'
p940
aS'http://drops.wooyun.org/papers/653'
p941
aS'http://drops.wooyun.org/tools/655'
p942
aS'http://drops.wooyun.org/tips/649'
p943
aS'http://drops.wooyun.org/tools/650'
p944
aS'http://drops.wooyun.org/tips/646'
p945
aS'http://drops.wooyun.org/tips/640'
p946
aS'http://drops.wooyun.org/tips/636'
p947
aS'http://drops.wooyun.org/tips/604'
p948
aS'http://drops.wooyun.org/tools/601'
p949
aS'http://drops.wooyun.org/papers/598'
p950
aS'http://drops.wooyun.org/papers/596'
p951
aS'http://drops.wooyun.org/papers/576'
p952
aS'http://drops.wooyun.org/tips/573'
p953
aS'http://drops.wooyun.org/tips/572'
p954
aS'http://drops.wooyun.org/news/568'
p955
aS'http://drops.wooyun.org/papers/548'
p956
aS'http://drops.wooyun.org/tips/544'
p957
aS'http://drops.wooyun.org/papers/539'
p958
aS'http://drops.wooyun.org/papers/534'
p959
aS'http://drops.wooyun.org/papers/526'
p960
aS'http://drops.wooyun.org/tips/509'
p961
aS'http://drops.wooyun.org/tips/524'
p962
aS'http://drops.wooyun.org/tools/515'
p963
aS'http://drops.wooyun.org/tips/516'
p964
aS'http://drops.wooyun.org/tips/508'
p965
aS'http://drops.wooyun.org/papers/512'
p966
aS'http://drops.wooyun.org/tips/510'
p967
aS'http://drops.wooyun.org/papers/506'
p968
aS'http://drops.wooyun.org/papers/501'
p969
aS'http://drops.wooyun.org/papers/483'
p970
aS'http://drops.wooyun.org/tips/429'
p971
aS'http://drops.wooyun.org/tools/427'
p972
aS'http://drops.wooyun.org/papers/410'
p973
aS'http://drops.wooyun.org/tips/421'
p974
aS'http://drops.wooyun.org/tips/411'
p975
aS'http://drops.wooyun.org/tips/413'
p976
aS'http://drops.wooyun.org/tips/409'
p977
aS'http://drops.wooyun.org/tips/402'
p978
aS'http://drops.wooyun.org/tips/401'
p979
aS'http://drops.wooyun.org/papers/384'
p980
aS'http://drops.wooyun.org/papers/382'
p981
aS'http://drops.wooyun.org/tips/352'
p982
aS'http://drops.wooyun.org/papers/353'
p983
aS'http://drops.wooyun.org/tips/348'
p984
aS'http://drops.wooyun.org/tips/349'
p985
aS'http://drops.wooyun.org/tips/347'
p986
aS'http://drops.wooyun.org/papers/346'
p987
aS'http://drops.wooyun.org/papers/178'
p988
aS'http://drops.wooyun.org/tips/341'
p989
aS'http://drops.wooyun.org/tips/342'
p990
aS'http://drops.wooyun.org/papers/345'
p991
aS'http://drops.wooyun.org/papers/340'
p992
aS'http://drops.wooyun.org/tips/288'
p993
aS'http://drops.wooyun.org/papers/287'
p994
aS'http://drops.wooyun.org/tips/236'
p995
aS'http://drops.wooyun.org/papers/238'
p996
aS'http://drops.wooyun.org/papers/234'
p997
aS'http://drops.wooyun.org/papers/219'
p998
aS'http://drops.wooyun.org/tips/218'
p999
aS'http://drops.wooyun.org/tips/188'
p1000
aS'http://drops.wooyun.org/papers/161'
p1001
aS'http://drops.wooyun.org/tips/164'
p1002
aS'http://drops.wooyun.org/tips/163'
p1003
aS'http://drops.wooyun.org/tips/160'
p1004
aS'http://drops.wooyun.org/tips/159'
p1005
aS'http://drops.wooyun.org/papers/155'
p1006
aS'http://drops.wooyun.org/papers/154'
p1007
aS'http://drops.wooyun.org/tips/153'
p1008
aS'http://drops.wooyun.org/tips/151'
p1009
aS'http://drops.wooyun.org/tips/150'
p1010
aS'http://drops.wooyun.org/tips/147'
p1011
aS'http://drops.wooyun.org/papers/146'
p1012
aS'http://drops.wooyun.org/tips/143'
p1013
aS'http://drops.wooyun.org/tips/141'
p1014
aS'http://drops.wooyun.org/tips/139'
p1015
aS'http://drops.wooyun.org/tips/135'
p1016
aS'http://drops.wooyun.org/tips/132'
p1017
aS'http://drops.wooyun.org/tips/134'
p1018
aS'http://drops.wooyun.org/tips/127'
p1019
aS'http://drops.wooyun.org/tips/125'
p1020
aS'http://drops.wooyun.org/papers/60'
p1021
aS'http://drops.wooyun.org/tips/123'
p1022
aS'http://drops.wooyun.org/tips/112'
p1023
aS'http://drops.wooyun.org/papers/104'
p1024
aS'http://drops.wooyun.org/tips/85'
p1025
aS'http://drops.wooyun.org/tips/78'
p1026
aS'http://drops.wooyun.org/tips/68'
p1027
aS'http://drops.wooyun.org/papers/66'
p1028
aS'http://drops.wooyun.org/papers/64'
p1029
aS'http://drops.wooyun.org/papers/61'
p1030
aS'http://drops.wooyun.org/papers/59'
p1031
aS'http://drops.wooyun.org/papers/58'
p1032
aS'http://drops.wooyun.org/tips/57'
p1033
aS'http://drops.wooyun.org/tips/53'
p1034
aS'http://drops.wooyun.org/papers/44'
p1035
aS'http://drops.wooyun.org/papers/42'
p1036
aS'http://drops.wooyun.org/tips/24'
p1037
a.